; Function Attrs: nounwind uwtable
define noalias nonnull ptr @l_Lean_Meta_PProdN_reduceProjs___lambda__1(ptr noundef readnone captures(none) %0, ptr noundef readnone captures(none) %1, ptr noundef readnone captures(none) %2, ptr noundef %3) local_unnamed_addr #0 {
  %5 = load ptr, ptr @l_Lean_Meta_PProdN_reduceProjs___lambda__1___closed__1, align 8, !tbaa !10
  tail call void @lean_inc_heartbeat() #4
  %6 = tail call noalias ptr @mi_malloc_small(i64 noundef 24) #4
  %7 = icmp eq ptr %6, null
  br i1 %7, label %8, label %lean_alloc_ctor.exit

8:                                                ; preds = %4
  tail call void @lean_internal_panic_out_of_memory() #5
  unreachable

lean_alloc_ctor.exit:                             ; preds = %4
  %9 = getelementptr inbounds nuw i8, ptr %6, i64 4
  store i32 1, ptr %6, align 4, !tbaa !4
  store i32 131096, ptr %9, align 4
  %10 = getelementptr inbounds nuw i8, ptr %6, i64 8
  store ptr %5, ptr %10, align 8, !tbaa !10
  %11 = getelementptr inbounds nuw i8, ptr %6, i64 16
  store ptr %3, ptr %11, align 8, !tbaa !10
  ret ptr %6
}